; ModuleID = 'bench/opencv/original/dataset.ll'
source_filename = "bench/opencv/original/dataset.ll"
target datalayout = "e-m:e-p270:32:32-p271:32:32-p272:64:64-i64:64-i128:128-f80:128-n8:16:32:64-S128"
target triple = "x86_64-pc-linux-gnu"

%"class.std::vector.0" = type { %"struct.std::_Vector_base.1" }
%"struct.std::_Vector_base.1" = type { %"struct.std::_Vector_base<cv::Ptr<cv::datasets::Object>, std::allocator<cv::Ptr<cv::datasets::Object>>>::_Vector_impl" }
%"struct.std::_Vector_base<cv::Ptr<cv::datasets::Object>, std::allocator<cv::Ptr<cv::datasets::Object>>>::_Vector_impl" = type { %"struct.std::_Vector_base<cv::Ptr<cv::datasets::Object>, std::allocator<cv::Ptr<cv::datasets::Object>>>::_Vector_impl_data" }
%"struct.std::_Vector_base<cv::Ptr<cv::datasets::Object>, std::allocator<cv::Ptr<cv::datasets::Object>>>::_Vector_impl_data" = type { ptr, ptr, ptr }

; Function Attrs: mustprogress nofree norecurse nosync nounwind willreturn memory(argmem: read) uwtable
define noundef nonnull align 8 dereferenceable(24) ptr @_ZN2cv8datasets7Dataset8getTrainEi(ptr noundef nonnull readonly align 8 dereferenceable(104) %0, i32 noundef %1) local_unnamed_addr #0 align 2 {
  %3 = getelementptr inbounds nuw i8, ptr %0, i64 8
  %4 = getelementptr inbounds nuw i8, ptr %0, i64 16
  %5 = load ptr, ptr %4, align 8, !tbaa !3
  %6 = load ptr, ptr %3, align 8, !tbaa !9
  %7 = ptrtoint ptr %5 to i64
  %8 = ptrtoint ptr %6 to i64
  %9 = sub i64 %7, %8
  %10 = sdiv exact i64 %9, 24
  %11 = trunc i64 %10 to i32
  %.not = icmp slt i32 %1, %11
  %12 = getelementptr inbounds nuw i8, ptr %0, i64 80
  %13 = sext i32 %1 to i64
  %14 = getelementptr inbounds nuw %"class.std::vector.0", ptr %6, i64 %13
  %.0 = select i1 %.not, ptr %14, ptr %12
  ret ptr %.0
}

; Function Attrs: mustprogress nofree norecurse nosync nounwind willreturn memory(argmem: read) uwtable
define noundef nonnull align 8 dereferenceable(24) ptr @_ZN2cv8datasets7Dataset7getTestEi(ptr noundef nonnull readonly align 8 dereferenceable(104) %0, i32 noundef %1) local_unnamed_addr #0 align 2 {
  %3 = getelementptr inbounds nuw i8, ptr %0, i64 32
  %4 = getelementptr inbounds nuw i8, ptr %0, i64 40
  %5 = load ptr, ptr %4, align 8, !tbaa !3
  %6 = load ptr, ptr %3, align 8, !tbaa !9
  %7 = ptrtoint ptr %5 to i64
  %8 = ptrtoint ptr %6 to i64
  %9 = sub i64 %7, %8
  %10 = sdiv exact i64 %9, 24
  %11 = trunc i64 %10 to i32
  %.not = icmp slt i32 %1, %11
  %12 = getelementptr inbounds nuw i8, ptr %0, i64 80
  %13 = sext i32 %1 to i64
  %14 = getelementptr inbounds nuw %"class.std::vector.0", ptr %6, i64 %13
  %.0 = select i1 %.not, ptr %14, ptr %12
  ret ptr %.0
}

; Function Attrs: mustprogress nofree norecurse nosync nounwind willreturn memory(argmem: read) uwtable
define noundef nonnull align 8 dereferenceable(24) ptr @_ZN2cv8datasets7Dataset13getValidationEi(ptr noundef nonnull readonly align 8 dereferenceable(104) %0, i32 noundef %1) local_unnamed_addr #0 align 2 {
  %3 = getelementptr inbounds nuw i8, ptr %0, i64 56
  %4 = getelementptr inbounds nuw i8, ptr %0, i64 64
  %5 = load ptr, ptr %4, align 8, !tbaa !3
  %6 = load ptr, ptr %3, align 8, !tbaa !9
  %7 = ptrtoint ptr %5 to i64
  %8 = ptrtoint ptr %6 to i64
  %9 = sub i64 %7, %8
  %10 = sdiv exact i64 %9, 24
  %11 = trunc i64 %10 to i32
  %.not = icmp slt i32 %1, %11
  %12 = getelementptr inbounds nuw i8, ptr %0, i64 80
  %13 = sext i32 %1 to i64
  %14 = getelementptr inbounds nuw %"class.std::vector.0", ptr %6, i64 %13
  %.0 = select i1 %.not, ptr %14, ptr %12
  ret ptr %.0
}

; Function Attrs: mustprogress nofree norecurse nosync nounwind willreturn memory(argmem: read) uwtable
define noundef i32 @_ZNK2cv8datasets7Dataset12getNumSplitsEv(ptr noundef nonnull readonly align 8 captures(none) dereferenceable(104) %0) local_unnamed_addr #0 align 2 {
  %2 = getelementptr inbounds nuw i8, ptr %0, i64 8
  %3 = getelementptr inbounds nuw i8, ptr %0, i64 16
  %4 = load ptr, ptr %3, align 8, !tbaa !3
  %5 = load ptr, ptr %2, align 8, !tbaa !9
  %6 = ptrtoint ptr %4 to i64
  %7 = ptrtoint ptr %5 to i64
  %8 = sub i64 %6, %7
  %9 = sdiv exact i64 %8, 24
  %10 = trunc i64 %9 to i32
  ret i32 %10
}


!llvm.module.flags = !{!0, !1, !2}

!0 = !{i32 1, !"wchar_size", i32 4}
!1 = !{i32 8, !"PIC Level", i32 2}
!2 = !{i32 7, !"uwtable", i32 2}
!3 = !{!4, !5, i64 8}
!4 = !{!"_ZTSNSt12_Vector_baseISt6vectorIN2cv3PtrINS1_8datasets6ObjectEEESaIS5_EESaIS7_EE17_Vector_impl_dataE", !5, i64 0, !5, i64 8, !5, i64 16}
!5 = !{!"p1 _ZTSSt6vectorIN2cv3PtrINS0_8datasets6ObjectEEESaIS4_EE", !6, i64 0}
!6 = !{!"any pointer", !7, i64 0}
!7 = !{!"omnipotent char", !8, i64 0}
!8 = !{!"Simple C++ TBAA"}
!9 = !{!4, !5, i64 0}
